Certificate:
    Data:
        Version: 3 (0x2)
        Serial Number: 4 (0x4)
    Signature Algorithm: sha1WithRSAEncryption
        Issuer: C=BE, ST=OV, L=Gent, O=MiX, OU=mix, CN=MiX CA/name=mix/emailAddress=streamstore@iminds.be
        Validity
            Not Before: Nov 18 13:07:19 2014 GMT
            Not After : Nov 15 13:07:19 2024 GMT
        Subject: C=BE, ST=OV, L=Gent, O=MiX, OU=mix, CN=solidKAOS/name=mix/emailAddress=streamstore@iminds.be
        Subject Public Key Info:
            Public Key Algorithm: rsaEncryption
                Public-Key: (1024 bit)
                Modulus:
                    00:d3:62:41:b3:7b:99:39:36:5e:e8:6e:44:cc:b3:
                    35:1a:76:4f:7c:23:67:59:16:58:a8:0c:c4:93:b3:
                    61:7c:b2:2e:c3:9e:17:36:d5:6d:32:e6:0c:bc:cf:
                    87:75:df:0c:bd:1d:bf:19:cb:21:1e:38:26:38:cc:
                    54:6e:de:41:65:d8:29:01:2b:90:b0:8d:07:4d:0d:
                    05:50:82:e6:a5:b7:b5:3a:e7:00:2a:f6:8f:ea:fb:
                    6c:06:64:0b:f2:43:69:8b:e4:62:cc:ec:84:16:ab:
                    be:a1:3c:21:ca:d2:6c:ac:12:c9:bf:ab:34:9f:08:
                    b2:0a:df:b3:0f:ca:9c:92:79
                Exponent: 65537 (0x10001)
        X509v3 extensions:
            X509v3 Basic Constraints: 
                CA:FALSE
            Netscape Comment: 
                Easy-RSA Generated Certificate
            X509v3 Subject Key Identifier: 
                F1:74:4C:84:A3:82:84:B2:D8:D6:96:78:FC:5E:EB:A4:54:3F:E6:80
            X509v3 Authority Key Identifier: 
                keyid:E6:B0:6C:B6:E3:9B:A7:D7:E8:A2:F9:D5:0B:A4:06:31:41:44:25:A3
                DirName:/C=BE/ST=OV/L=Gent/O=MiX/OU=mix/CN=MiX CA/name=mix/emailAddress=streamstore@iminds.be
                serial:BE:5E:DD:22:60:AE:55:B5

            X509v3 Extended Key Usage: 
                TLS Web Client Authentication
            X509v3 Key Usage: 
                Digital Signature
    Signature Algorithm: sha1WithRSAEncryption
         cc:3c:44:82:87:4c:19:16:86:93:6c:61:ad:6b:37:2a:b0:6f:
         db:c3:66:e0:c9:9e:40:ba:5d:13:9f:17:11:f7:5d:c9:fd:fb:
         f4:4e:2f:29:a7:97:bb:0d:35:59:c9:3f:be:7a:e6:ab:b7:95:
         a5:e6:f0:7d:40:f1:e4:59:26:8d:12:79:aa:50:e4:12:25:0e:
         61:41:2f:f8:66:56:cf:f6:d0:72:61:b9:b6:9b:01:2e:c2:be:
         37:60:bd:a8:07:76:6a:2c:3d:1a:a3:19:85:ee:44:6a:5d:10:
         cd:d2:66:17:88:ca:59:b3:7d:20:0a:b0:2f:1b:f9:ed:57:75:
         02:81
-----BEGIN CERTIFICATE-----
MIID0jCCAzugAwIBAgIBBDANBgkqhkiG9w0BAQUFADCBijELMAkGA1UEBhMCQkUx
CzAJBgNVBAgTAk9WMQ0wCwYDVQQHEwRHZW50MQwwCgYDVQQKEwNNaVgxDDAKBgNV
BAsTA21peDEPMA0GA1UEAxMGTWlYIENBMQwwCgYDVQQpEwNtaXgxJDAiBgkqhkiG
9w0BCQEWFXN0cmVhbXN0b3JlQGltaW5kcy5iZTAeFw0xNDExMTgxMzA3MTlaFw0y
NDExMTUxMzA3MTlaMIGNMQswCQYDVQQGEwJCRTELMAkGA1UECBMCT1YxDTALBgNV
BAcTBEdlbnQxDDAKBgNVBAoTA01pWDEMMAoGA1UECxMDbWl4MRIwEAYDVQQDEwlz
b2xpZEtBT1MxDDAKBgNVBCkTA21peDEkMCIGCSqGSIb3DQEJARYVc3RyZWFtc3Rv
cmVAaW1pbmRzLmJlMIGfMA0GCSqGSIb3DQEBAQUAA4GNADCBiQKBgQDTYkGze5k5
Nl7obkTMszUadk98I2dZFlioDMSTs2F8si7Dnhc21W0y5gy8z4d13wy9Hb8ZyyEe
OCY4zFRu3kFl2CkBK5CwjQdNDQVQgualt7U65wAq9o/q+2wGZAvyQ2mL5GLM7IQW
q76hPCHK0mysEsm/qzSfCLIK37MPypySeQIDAQABo4IBQTCCAT0wCQYDVR0TBAIw
ADAtBglghkgBhvhCAQ0EIBYeRWFzeS1SU0EgR2VuZXJhdGVkIENlcnRpZmljYXRl
MB0GA1UdDgQWBBTxdEyEo4KEstjWlnj8XuukVD/mgDCBvwYDVR0jBIG3MIG0gBTm
sGy245un1+ii+dULpAYxQUQlo6GBkKSBjTCBijELMAkGA1UEBhMCQkUxCzAJBgNV
BAgTAk9WMQ0wCwYDVQQHEwRHZW50MQwwCgYDVQQKEwNNaVgxDDAKBgNVBAsTA21p
eDEPMA0GA1UEAxMGTWlYIENBMQwwCgYDVQQpEwNtaXgxJDAiBgkqhkiG9w0BCQEW
FXN0cmVhbXN0b3JlQGltaW5kcy5iZYIJAL5e3SJgrlW1MBMGA1UdJQQMMAoGCCsG
AQUFBwMCMAsGA1UdDwQEAwIHgDANBgkqhkiG9w0BAQUFAAOBgQDMPESCh0wZFoaT
bGGtazcqsG/bw2bgyZ5Aul0TnxcR913J/fv0Ti8pp5e7DTVZyT++euart5Wl5vB9
QPHkWSaNEnmqUOQSJQ5hQS/4ZlbP9tByYbm2mwEuwr43YL2oB3ZqLD0aoxmF7kRq
XRDN0mYXiMpZs30gCrAvG/ntV3UCgQ==
-----END CERTIFICATE-----
