Certificate:
    Data:
        Version: 3 (0x2)
        Serial Number: 7 (0x7)
    Signature Algorithm: sha1WithRSAEncryption
        Issuer: C=BE, ST=OV, L=Gent, O=MiX, OU=mix, CN=MiX CA/name=mix/emailAddress=streamstore@iminds.be
        Validity
            Not Before: Nov 19 10:02:56 2014 GMT
            Not After : Nov 16 10:02:56 2024 GMT
        Subject: C=BE, ST=OV, L=Gent, O=MiX, OU=mix, CN=imacServer/name=mix/emailAddress=streamstore@iminds.be
        Subject Public Key Info:
            Public Key Algorithm: rsaEncryption
                Public-Key: (1024 bit)
                Modulus:
                    00:c9:8b:fc:bb:ea:3a:68:90:76:e1:3e:cf:4e:ac:
                    e9:90:cd:79:f1:d4:95:f0:a3:20:ec:68:2a:9b:23:
                    dd:6b:6a:bf:66:48:7d:10:3a:c2:fe:44:61:a9:e4:
                    01:e5:1d:a5:7e:23:bf:2d:77:61:b9:44:0d:76:97:
                    ac:f0:d6:9f:57:c5:2c:9e:ba:97:87:e5:c1:89:ee:
                    ae:9e:4a:bf:6a:fd:9a:cc:83:3e:e6:57:79:37:c3:
                    47:e2:de:66:f0:bc:d6:04:6a:70:95:e4:bd:6f:04:
                    74:36:28:ad:e3:5f:98:b8:9a:7c:39:82:84:7d:40:
                    82:76:f2:c4:10:39:3d:ea:65
                Exponent: 65537 (0x10001)
        X509v3 extensions:
            X509v3 Basic Constraints: 
                CA:FALSE
            Netscape Comment: 
                Easy-RSA Generated Certificate
            X509v3 Subject Key Identifier: 
                0A:B1:14:C9:EA:16:07:AF:84:57:1B:0B:5B:6F:6D:05:F8:12:13:43
            X509v3 Authority Key Identifier: 
                keyid:E6:B0:6C:B6:E3:9B:A7:D7:E8:A2:F9:D5:0B:A4:06:31:41:44:25:A3
                DirName:/C=BE/ST=OV/L=Gent/O=MiX/OU=mix/CN=MiX CA/name=mix/emailAddress=streamstore@iminds.be
                serial:BE:5E:DD:22:60:AE:55:B5

            X509v3 Extended Key Usage: 
                TLS Web Client Authentication
            X509v3 Key Usage: 
                Digital Signature
    Signature Algorithm: sha1WithRSAEncryption
         96:13:ca:99:ea:08:f0:3a:f3:bc:d4:b8:60:8f:7b:f8:1d:e0:
         a8:31:68:1c:0e:1b:7f:2d:be:2d:30:fb:cb:d2:af:11:e3:38:
         2b:e5:b2:c9:00:9a:2c:84:a5:ee:a8:25:1c:63:1c:0d:02:0e:
         cd:1e:e9:a5:bd:50:66:62:a7:ce:47:fa:68:4d:e1:71:b4:36:
         7f:a9:7d:b2:2b:2c:95:56:fc:4b:b3:66:4a:02:95:c4:6d:f8:
         e7:85:65:b8:23:86:58:fc:81:32:35:ec:c3:75:ca:c6:d5:b7:
         64:e6:a5:47:91:f1:00:cb:5d:d9:ea:fc:84:7f:b2:3c:b5:58:
         b2:e0
-----BEGIN CERTIFICATE-----
MIID0zCCAzygAwIBAgIBBzANBgkqhkiG9w0BAQUFADCBijELMAkGA1UEBhMCQkUx
CzAJBgNVBAgTAk9WMQ0wCwYDVQQHEwRHZW50MQwwCgYDVQQKEwNNaVgxDDAKBgNV
BAsTA21peDEPMA0GA1UEAxMGTWlYIENBMQwwCgYDVQQpEwNtaXgxJDAiBgkqhkiG
9w0BCQEWFXN0cmVhbXN0b3JlQGltaW5kcy5iZTAeFw0xNDExMTkxMDAyNTZaFw0y
NDExMTYxMDAyNTZaMIGOMQswCQYDVQQGEwJCRTELMAkGA1UECBMCT1YxDTALBgNV
BAcTBEdlbnQxDDAKBgNVBAoTA01pWDEMMAoGA1UECxMDbWl4MRMwEQYDVQQDEwpp
bWFjU2VydmVyMQwwCgYDVQQpEwNtaXgxJDAiBgkqhkiG9w0BCQEWFXN0cmVhbXN0
b3JlQGltaW5kcy5iZTCBnzANBgkqhkiG9w0BAQEFAAOBjQAwgYkCgYEAyYv8u+o6
aJB24T7PTqzpkM158dSV8KMg7GgqmyPda2q/Zkh9EDrC/kRhqeQB5R2lfiO/LXdh
uUQNdpes8NafV8UsnrqXh+XBie6unkq/av2azIM+5ld5N8NH4t5m8LzWBGpwleS9
bwR0Niit41+YuJp8OYKEfUCCdvLEEDk96mUCAwEAAaOCAUEwggE9MAkGA1UdEwQC
MAAwLQYJYIZIAYb4QgENBCAWHkVhc3ktUlNBIEdlbmVyYXRlZCBDZXJ0aWZpY2F0
ZTAdBgNVHQ4EFgQUCrEUyeoWB6+EVxsLW29tBfgSE0Mwgb8GA1UdIwSBtzCBtIAU
5rBstuObp9foovnVC6QGMUFEJaOhgZCkgY0wgYoxCzAJBgNVBAYTAkJFMQswCQYD
VQQIEwJPVjENMAsGA1UEBxMER2VudDEMMAoGA1UEChMDTWlYMQwwCgYDVQQLEwNt
aXgxDzANBgNVBAMTBk1pWCBDQTEMMAoGA1UEKRMDbWl4MSQwIgYJKoZIhvcNAQkB
FhVzdHJlYW1zdG9yZUBpbWluZHMuYmWCCQC+Xt0iYK5VtTATBgNVHSUEDDAKBggr
BgEFBQcDAjALBgNVHQ8EBAMCB4AwDQYJKoZIhvcNAQEFBQADgYEAlhPKmeoI8Drz
vNS4YI97+B3gqDFoHA4bfy2+LTD7y9KvEeM4K+WyyQCaLISl7qglHGMcDQIOzR7p
pb1QZmKnzkf6aE3hcbQ2f6l9sisslVb8S7NmSgKVxG3454VluCOGWPyBMjXsw3XK
xtW3ZOalR5HxAMtd2er8hH+yPLVYsuA=
-----END CERTIFICATE-----
